target datalayout = "e-m:e-p270:32:32-p271:32:32-p272:64:64-i64:64-i128:128-f80:128-n8:16:32:64-S128"
target triple = "x86_64-unknown-linux-gnu"

%struct.MemoryRegion = type { %struct.Object, i8, i8, i8, i8, i8, i8, i8, i8, i8, i8, ptr, ptr, ptr, ptr, ptr, ptr, i32, i128, i64, ptr, i64, i8, i8, i8, i8, i8, ptr, i64, i32, %union.anon, %union.anon.0, %union.anon.1, ptr, i32, ptr, ptr, i8 }
%struct.Object = type { ptr, ptr, ptr, i32, ptr }
%union.anon = type { %struct.QTailQLink }
%struct.QTailQLink = type { ptr, ptr }
%union.anon.0 = type { %struct.QTailQLink }
%union.anon.1 = type { %struct.QTailQLink }
%struct.PCIVGAState = type { %struct.PCIDevice, %struct.VGACommonState, i32, %struct.qemu_edid_info, %struct.MemoryRegion, [4 x %struct.MemoryRegion], [384 x i8] }
%struct.PCIDevice = type { %struct.DeviceState, i8, i8, ptr, ptr, ptr, ptr, ptr, i32, %struct.PCIReqIDCache, [64 x i8], [7 x %struct.PCIIORegion], %struct.AddressSpace, %struct.MemoryRegion, %struct.MemoryRegion, ptr, ptr, [3 x ptr], i8, i8, i32, i8, i32, ptr, ptr, ptr, ptr, ptr, ptr, %struct.MemoryRegion, %struct.MemoryRegion, %struct.MemoryRegion, ptr, i8, i32, i8, %struct.PCIExpressDevice, ptr, ptr, i32, i8, %struct.MemoryRegion, i32, ptr, ptr, ptr, ptr, ptr, i32 }
%struct.DeviceState = type { %struct.Object, ptr, ptr, i8, i8, i64, ptr, i32, i8, ptr, %struct.NamedGPIOListHead, %struct.NamedClockListHead, %struct.BusStateHead, i32, i32, i32, %struct.ResettableState, ptr, %struct.MemReentrancyGuard }
%struct.NamedGPIOListHead = type { ptr }
%struct.NamedClockListHead = type { ptr }
%struct.BusStateHead = type { ptr }
%struct.ResettableState = type { i32, i8, i8 }
%struct.MemReentrancyGuard = type { i8 }
%struct.PCIReqIDCache = type { ptr, i32 }
%struct.PCIIORegion = type { i64, i64, i8, ptr, ptr }
%struct.AddressSpace = type { %struct.rcu_head, ptr, ptr, ptr, i32, i32, ptr, %union.anon.3, %union.anon.4 }
%struct.rcu_head = type { ptr, ptr }
%union.anon.3 = type { %struct.QTailQLink }
%union.anon.4 = type { %struct.QTailQLink }
%struct.PCIExpressDevice = type { i8, i8, i8, i16, %struct.PCIEAERLog, i16, i16, i16, %struct.PCIESriovPF, %struct.PCIESriovVF }
%struct.PCIEAERLog = type { i16, i16, ptr }
%struct.PCIESriovPF = type { i16, [7 x i8], ptr, ptr }
%struct.PCIESriovVF = type { ptr, i16 }
%struct.VGACommonState = type { ptr, ptr, %struct.MemoryRegion, i32, i32, i32, i32, i32, i8, %struct.MemoryRegion, i8, [256 x i8], [256 x i8], i8, [256 x i8], i8, [21 x i8], i32, i8, [256 x i8], i8, i8, i8, i8, i8, i8, i8, i8, [3 x i8], i32, [768 x i8], i32, ptr, ptr, ptr, %struct.PortioList, %struct.PortioList, i16, [10 x i16], i32, i32, i32, ptr, [2 x i32], i32, i8, i8, i32, i32, i32, i32, i32, i8, i8, i32, i32, i32, i32, i32, i8, i8, i8, i8, i8, i64, i32, ptr, i8, i8, i8, i8, i8, [64 x i32], i32, i32, ptr, ptr, [256 x i32], [16000 x i32], ptr, ptr, %union.vga_retrace, i8 }
%struct.PortioList = type { ptr, ptr, ptr, i32, ptr, ptr, ptr, i8 }
%union.vga_retrace = type { %struct.vga_precise_retrace }
%struct.vga_precise_retrace = type { i64, i64, i32, i32, i32, i32, i32, i32 }
%struct.qemu_edid_info = type { ptr, ptr, ptr, i16, i16, i32, i32, i32, i32, i32 }

@.str.3 = private unnamed_addr constant [8 x i8] c"pci-vga\00", align 1
@.str.18 = private unnamed_addr constant [29 x i8] c"../qemu/hw/display/vga-pci.c\00", align 1
@__func__.PCI_VGA = private unnamed_addr constant [8 x i8] c"PCI_VGA\00", align 1

; Function Attrs: nounwind sspstrong uwtable
define internal ptr @PCI_VGA(ptr noundef %obj) #0 {
entry:
  %obj.addr = alloca ptr, align 8
  store ptr %obj, ptr %obj.addr, align 8
  %0 = load ptr, ptr %obj.addr, align 8
  %call = call ptr @object_dynamic_cast_assert(ptr noundef %0, ptr noundef @.str.3, ptr noundef @.str.18, i32 noundef 58, ptr noundef @__func__.PCI_VGA)
  ret ptr %call
}

; Function Attrs: nounwind sspstrong uwtable
define internal void @pci_secondary_vga_exit(ptr noundef %dev) #0 {
entry:
  %dev.addr = alloca ptr, align 8
  %d = alloca ptr, align 8
  %s = alloca ptr, align 8
  store ptr %dev, ptr %dev.addr, align 8
  %0 = load ptr, ptr %dev.addr, align 8
  %call = call ptr @PCI_VGA(ptr noundef %0)
  store ptr %call, ptr %d, align 8
  %1 = load ptr, ptr %d, align 8
  %vga = getelementptr inbounds %struct.PCIVGAState, ptr %1, i32 0, i32 1
  store ptr %vga, ptr %s, align 8
  %2 = load ptr, ptr %s, align 8
  %con = getelementptr inbounds %struct.VGACommonState, ptr %2, i32 0, i32 42
  %3 = load ptr, ptr %con, align 16
  call void @graphic_console_close(ptr noundef %3)
  %4 = load ptr, ptr %d, align 8
  %mmio = getelementptr inbounds %struct.PCIVGAState, ptr %4, i32 0, i32 4
  %5 = load ptr, ptr %d, align 8
  %mrs = getelementptr inbounds %struct.PCIVGAState, ptr %5, i32 0, i32 5
  %arrayidx = getelementptr [4 x %struct.MemoryRegion], ptr %mrs, i64 0, i64 0
  call void @memory_region_del_subregion(ptr noundef %mmio, ptr noundef %arrayidx)
  %6 = load ptr, ptr %d, align 8
  %mmio1 = getelementptr inbounds %struct.PCIVGAState, ptr %6, i32 0, i32 4
  %7 = load ptr, ptr %d, align 8
  %mrs2 = getelementptr inbounds %struct.PCIVGAState, ptr %7, i32 0, i32 5
  %arrayidx3 = getelementptr [4 x %struct.MemoryRegion], ptr %mrs2, i64 0, i64 1
  call void @memory_region_del_subregion(ptr noundef %mmio1, ptr noundef %arrayidx3)
  %8 = load ptr, ptr %d, align 8
  %flags = getelementptr inbounds %struct.PCIVGAState, ptr %8, i32 0, i32 2
  %9 = load i32, ptr %flags, align 16
  %and = and i32 %9, 4
  %tobool = icmp ne i32 %and, 0
  br i1 %tobool, label %if.then, label %if.end

if.then:                                          ; preds = %entry
  %10 = load ptr, ptr %d, align 8
  %mmio4 = getelementptr inbounds %struct.PCIVGAState, ptr %10, i32 0, i32 4
  %11 = load ptr, ptr %d, align 8
  %mrs5 = getelementptr inbounds %struct.PCIVGAState, ptr %11, i32 0, i32 5
  %arrayidx6 = getelementptr [4 x %struct.MemoryRegion], ptr %mrs5, i64 0, i64 2
  call void @memory_region_del_subregion(ptr noundef %mmio4, ptr noundef %arrayidx6)
  br label %if.end

if.end:                                           ; preds = %if.then, %entry
  %12 = load ptr, ptr %d, align 8
  %flags7 = getelementptr inbounds %struct.PCIVGAState, ptr %12, i32 0, i32 2
  %13 = load i32, ptr %flags7, align 16
  %and8 = and i32 %13, 8
  %tobool9 = icmp ne i32 %and8, 0
  br i1 %tobool9, label %if.then10, label %if.end14

if.then10:                                        ; preds = %if.end
  %14 = load ptr, ptr %d, align 8
  %mmio11 = getelementptr inbounds %struct.PCIVGAState, ptr %14, i32 0, i32 4
  %15 = load ptr, ptr %d, align 8
  %mrs12 = getelementptr inbounds %struct.PCIVGAState, ptr %15, i32 0, i32 5
  %arrayidx13 = getelementptr [4 x %struct.MemoryRegion], ptr %mrs12, i64 0, i64 3
  call void @memory_region_del_subregion(ptr noundef %mmio11, ptr noundef %arrayidx13)
  br label %if.end14

if.end14:                                         ; preds = %if.then10, %if.end
  ret void
}