; Function Attrs: nounwind sspstrong uwtable
define internal void @pci_secondary_vga_exit(ptr noundef %dev) #0 {
entry:
  %call.i = tail call ptr @object_dynamic_cast_assert(ptr noundef %dev, ptr noundef nonnull @.str.3, ptr noundef nonnull @.str.18, i32 noundef 58, ptr noundef nonnull @__func__.PCI_VGA) #4
  %con = getelementptr inbounds nuw i8, ptr %call.i, i64 5232
  %0 = load ptr, ptr %con, align 16
  tail call void @graphic_console_close(ptr noundef %0) #4
  %mmio = getelementptr inbounds nuw i8, ptr %call.i, i64 70784
  %mrs = getelementptr inbounds nuw i8, ptr %call.i, i64 71056
  tail call void @memory_region_del_subregion(ptr noundef nonnull %mmio, ptr noundef nonnull %mrs) #4
  %arrayidx3 = getelementptr i8, ptr %call.i, i64 71328
  tail call void @memory_region_del_subregion(ptr noundef nonnull %mmio, ptr noundef %arrayidx3) #4
  %flags = getelementptr inbounds nuw i8, ptr %call.i, i64 70720
  %1 = load i32, ptr %flags, align 16
  %and = and i32 %1, 4
  %tobool.not = icmp eq i32 %and, 0
  br i1 %tobool.not, label %if.end, label %if.then

if.then:                                          ; preds = %entry
  %arrayidx6 = getelementptr i8, ptr %call.i, i64 71600
  tail call void @memory_region_del_subregion(ptr noundef nonnull %mmio, ptr noundef %arrayidx6) #4
  %.pre = load i32, ptr %flags, align 16
  br label %if.end

if.end:                                           ; preds = %if.then, %entry
  %2 = phi i32 [ %.pre, %if.then ], [ %1, %entry ]
  %and8 = and i32 %2, 8
  %tobool9.not = icmp eq i32 %and8, 0
  br i1 %tobool9.not, label %if.end14, label %if.then10

if.then10:                                        ; preds = %if.end
  %arrayidx13 = getelementptr i8, ptr %call.i, i64 71872
  tail call void @memory_region_del_subregion(ptr noundef nonnull %mmio, ptr noundef %arrayidx13) #4
  br label %if.end14

if.end14:                                         ; preds = %if.then10, %if.end
  ret void
}